target datalayout = "e-m:e-p270:32:32-p271:32:32-p272:64:64-i64:64-i128:128-f80:128-n8:16:32:64-S128"
target triple = "x86_64-pc-linux-gnu"

%struct.expert_field = type { i32, i32 }
%struct.crumb_spec_t = type { i32, i8 }

@hf_ansi_637_reserved_bits_8_generic = internal global i32 0, align 4
@hf_ansi_637_reserved_bits_16_generic = internal global i32 0, align 4
@hf_ansi_637_tele_srvc_cat_prog_data_encoding = internal global i32 0, align 4
@hf_ansi_637_tele_srvc_cat_prog_data_operation_code = internal global i32 0, align 4
@hf_ansi_637_tele_srvc_cat_prog_data_category = internal global i32 0, align 4
@hf_ansi_637_tele_srvc_cat_prog_data_language = internal global i32 0, align 4
@hf_ansi_637_tele_srvc_cat_prog_data_max_messages = internal global i32 0, align 4
@hf_ansi_637_tele_srvc_cat_prog_data_alert_option = internal global i32 0, align 4
@hf_ansi_637_tele_srvc_cat_prog_data_num_fields = internal global i32 0, align 4
@hf_ansi_637_tele_srvc_cat_prog_data_text = internal global i32 0, align 4
@ei_ansi_637_short_data = internal global %struct.expert_field zeroinitializer, align 4

; Function Attrs: null_pointer_is_valid sspstrong uwtable
define internal void @tele_param_srvc_cat_prog_data(ptr noundef %0, ptr noundef %1, ptr noundef %2, i32 noundef %3, i32 noundef %4, ptr noundef %5) #0 {
  %7 = alloca ptr, align 8
  %8 = alloca ptr, align 8
  %9 = alloca ptr, align 8
  %10 = alloca i32, align 4
  %11 = alloca i32, align 4
  %12 = alloca ptr, align 8
  %13 = alloca i64, align 8
  %14 = alloca i8, align 1
  %15 = alloca i64, align 8
  %16 = alloca i8, align 1
  %17 = alloca i8, align 1
  %18 = alloca i16, align 2
  %19 = alloca i32, align 4
  %20 = alloca i32, align 4
  %21 = alloca i32, align 4
  %22 = alloca [3 x %struct.crumb_spec_t], align 16
  %23 = alloca i8, align 1
  %24 = alloca i32, align 4
  store ptr %0, ptr %7, align 8
  store ptr %1, ptr %8, align 8
  store ptr %2, ptr %9, align 8
  store i32 %3, ptr %10, align 4
  store i32 %4, ptr %11, align 4
  store ptr %5, ptr %12, align 8
  call void @llvm.lifetime.start.p0(i64 8, ptr %13) #7
  call void @llvm.lifetime.start.p0(i64 1, ptr %14) #7
  call void @llvm.lifetime.start.p0(i64 8, ptr %15) #7
  call void @llvm.lifetime.start.p0(i64 1, ptr %16) #7
  call void @llvm.lifetime.start.p0(i64 1, ptr %17) #7
  call void @llvm.lifetime.start.p0(i64 2, ptr %18) #7
  call void @llvm.lifetime.start.p0(i64 4, ptr %19) #7
  call void @llvm.lifetime.start.p0(i64 4, ptr %20) #7
  store i32 0, ptr %20, align 4
  %25 = load i32, ptr %10, align 4
  %26 = icmp ult i32 %25, 2
  br i1 %26, label %27, label %34

27:                                               ; preds = %6
  %28 = load ptr, ptr %9, align 8
  %29 = load ptr, ptr %8, align 8
  %30 = load ptr, ptr %7, align 8
  %31 = load i32, ptr %11, align 4
  %32 = load i32, ptr %10, align 4
  %33 = call ptr @proto_tree_add_expert(ptr noundef %28, ptr noundef %29, ptr noundef @ei_ansi_637_short_data, ptr noundef %30, i32 noundef %31, i32 noundef %32)
  store i32 1, ptr %21, align 4
  br label %265

34:                                               ; preds = %6
  %35 = load i32, ptr %11, align 4
  store i32 %35, ptr %19, align 4
  %36 = load i32, ptr %11, align 4
  %37 = shl i32 %36, 3
  store i32 %37, ptr %11, align 4
  %38 = load i32, ptr %10, align 4
  %39 = mul i32 %38, 8
  %40 = trunc i32 %39 to i16
  store i16 %40, ptr %18, align 2
  %41 = load ptr, ptr %9, align 8
  %42 = load i32, ptr @hf_ansi_637_tele_srvc_cat_prog_data_encoding, align 4
  %43 = load ptr, ptr %7, align 8
  %44 = load i32, ptr %11, align 4
  %45 = call ptr @proto_tree_add_bits_ret_val(ptr noundef %41, i32 noundef %42, ptr noundef %43, i32 noundef %44, i32 noundef 5, ptr noundef %13, i32 noundef 0)
  %46 = load i64, ptr %13, align 8
  switch i64 %46, label %49 [
    i64 0, label %47
    i64 5, label %47
    i64 6, label %47
    i64 7, label %47
    i64 8, label %47
    i64 16, label %47
    i64 1, label %48
    i64 2, label %48
    i64 3, label %48
    i64 4, label %50
    i64 9, label %51
  ]

47:                                               ; preds = %34, %34, %34, %34, %34, %34
  store i8 8, ptr %14, align 1
  store i32 0, ptr %20, align 4
  br label %52

48:                                               ; preds = %34, %34, %34
  br label %49

49:                                               ; preds = %34, %48
  store i8 7, ptr %14, align 1
  store i32 2, ptr %20, align 4
  br label %52

50:                                               ; preds = %34
  store i8 16, ptr %14, align 1
  store i32 0, ptr %20, align 4
  br label %52

51:                                               ; preds = %34
  store i8 7, ptr %14, align 1
  store i32 1, ptr %20, align 4
  br label %52

52:                                               ; preds = %51, %50, %49, %47
  %53 = load i32, ptr %11, align 4
  %54 = add i32 %53, 5
  store i32 %54, ptr %11, align 4
  %55 = load i16, ptr %18, align 2
  %56 = zext i16 %55 to i32
  %57 = sub i32 %56, 5
  %58 = trunc i32 %57 to i16
  store i16 %58, ptr %18, align 2
  br label %59

59:                                               ; preds = %181, %52
  %60 = load i16, ptr %18, align 2
  %61 = zext i16 %60 to i32
  %62 = icmp sgt i32 %61, 7
  br i1 %62, label %63, label %182

63:                                               ; preds = %59
  %64 = load ptr, ptr %9, align 8
  %65 = load i32, ptr @hf_ansi_637_tele_srvc_cat_prog_data_operation_code, align 4
  %66 = load ptr, ptr %7, align 8
  %67 = load i32, ptr %11, align 4
  %68 = call ptr @proto_tree_add_bits_item(ptr noundef %64, i32 noundef %65, ptr noundef %66, i32 noundef %67, i32 noundef 4, i32 noundef 0)
  %69 = load i32, ptr %11, align 4
  %70 = add i32 %69, 4
  store i32 %70, ptr %11, align 4
  %71 = load i16, ptr %18, align 2
  %72 = zext i16 %71 to i32
  %73 = sub i32 %72, 4
  %74 = trunc i32 %73 to i16
  store i16 %74, ptr %18, align 2
  %75 = load ptr, ptr %9, align 8
  %76 = load i32, ptr @hf_ansi_637_tele_srvc_cat_prog_data_category, align 4
  %77 = load ptr, ptr %7, align 8
  %78 = load i32, ptr %11, align 4
  %79 = call ptr @proto_tree_add_bits_item(ptr noundef %75, i32 noundef %76, ptr noundef %77, i32 noundef %78, i32 noundef 16, i32 noundef 0)
  %80 = load i32, ptr %11, align 4
  %81 = add i32 %80, 16
  store i32 %81, ptr %11, align 4
  %82 = load i16, ptr %18, align 2
  %83 = zext i16 %82 to i32
  %84 = sub i32 %83, 16
  %85 = trunc i32 %84 to i16
  store i16 %85, ptr %18, align 2
  %86 = load ptr, ptr %9, align 8
  %87 = load i32, ptr @hf_ansi_637_tele_srvc_cat_prog_data_language, align 4
  %88 = load ptr, ptr %7, align 8
  %89 = load i32, ptr %11, align 4
  %90 = call ptr @proto_tree_add_bits_item(ptr noundef %86, i32 noundef %87, ptr noundef %88, i32 noundef %89, i32 noundef 8, i32 noundef 0)
  %91 = load i32, ptr %11, align 4
  %92 = add i32 %91, 8
  store i32 %92, ptr %11, align 4
  %93 = load i16, ptr %18, align 2
  %94 = zext i16 %93 to i32
  %95 = sub i32 %94, 8
  %96 = trunc i32 %95 to i16
  store i16 %96, ptr %18, align 2
  %97 = load ptr, ptr %9, align 8
  %98 = load i32, ptr @hf_ansi_637_tele_srvc_cat_prog_data_max_messages, align 4
  %99 = load ptr, ptr %7, align 8
  %100 = load i32, ptr %11, align 4
  %101 = call ptr @proto_tree_add_bits_item(ptr noundef %97, i32 noundef %98, ptr noundef %99, i32 noundef %100, i32 noundef 8, i32 noundef 0)
  %102 = load i32, ptr %11, align 4
  %103 = add i32 %102, 8
  store i32 %103, ptr %11, align 4
  %104 = load i16, ptr %18, align 2
  %105 = zext i16 %104 to i32
  %106 = sub i32 %105, 8
  %107 = trunc i32 %106 to i16
  store i16 %107, ptr %18, align 2
  %108 = load ptr, ptr %9, align 8
  %109 = load i32, ptr @hf_ansi_637_tele_srvc_cat_prog_data_alert_option, align 4
  %110 = load ptr, ptr %7, align 8
  %111 = load i32, ptr %11, align 4
  %112 = call ptr @proto_tree_add_bits_item(ptr noundef %108, i32 noundef %109, ptr noundef %110, i32 noundef %111, i32 noundef 4, i32 noundef 0)
  %113 = load i32, ptr %11, align 4
  %114 = add i32 %113, 4
  store i32 %114, ptr %11, align 4
  %115 = load i16, ptr %18, align 2
  %116 = zext i16 %115 to i32
  %117 = sub i32 %116, 4
  %118 = trunc i32 %117 to i16
  store i16 %118, ptr %18, align 2
  %119 = load ptr, ptr %9, align 8
  %120 = load i32, ptr @hf_ansi_637_tele_srvc_cat_prog_data_num_fields, align 4
  %121 = load ptr, ptr %7, align 8
  %122 = load i32, ptr %11, align 4
  %123 = call ptr @proto_tree_add_bits_ret_val(ptr noundef %119, i32 noundef %120, ptr noundef %121, i32 noundef %122, i32 noundef 8, ptr noundef %15, i32 noundef 0)
  %124 = load i32, ptr %11, align 4
  %125 = add i32 %124, 8
  store i32 %125, ptr %11, align 4
  %126 = load i16, ptr %18, align 2
  %127 = zext i16 %126 to i32
  %128 = sub i32 %127, 8
  %129 = trunc i32 %128 to i16
  store i16 %129, ptr %18, align 2
  %130 = load i32, ptr %11, align 4
  %131 = and i32 %130, 7
  %132 = icmp ne i32 %131, 0
  br i1 %132, label %133, label %137

133:                                              ; preds = %63
  %134 = load i32, ptr %11, align 4
  %135 = and i32 %134, 7
  %136 = sub i32 8, %135
  br label %138

137:                                              ; preds = %63
  br label %138

138:                                              ; preds = %137, %133
  %139 = phi i32 [ %136, %133 ], [ 0, %137 ]
  %140 = trunc i32 %139 to i8
  store i8 %140, ptr %16, align 1
  store i8 0, ptr %17, align 1
  %141 = load i64, ptr %15, align 8
  %142 = icmp ne i64 %141, 0
  br i1 %142, label %143, label %181

143:                                              ; preds = %138
  %144 = load ptr, ptr %7, align 8
  %145 = load ptr, ptr %8, align 8
  %146 = load ptr, ptr %9, align 8
  %147 = load i32, ptr %11, align 4
  %148 = lshr i32 %147, 3
  %149 = load i64, ptr %13, align 8
  %150 = trunc i64 %149 to i8
  %151 = load i64, ptr %15, align 8
  %152 = trunc i64 %151 to i8
  %153 = load i64, ptr %15, align 8
  %154 = trunc i64 %153 to i8
  %155 = zext i8 %154 to i32
  %156 = load i8, ptr %14, align 1
  %157 = zext i8 %156 to i32
  %158 = mul i32 %155, %157
  %159 = trunc i32 %158 to i16
  %160 = load i8, ptr %16, align 1
  %161 = load i8, ptr %17, align 1
  %162 = load i32, ptr @hf_ansi_637_tele_srvc_cat_prog_data_text, align 4
  call void @text_decoder(ptr noundef %144, ptr noundef %145, ptr noundef %146, i32 noundef %148, i8 noundef zeroext %150, i8 noundef zeroext %152, i16 noundef zeroext %159, i8 noundef zeroext %160, i8 noundef zeroext %161, i32 noundef %162)
  %163 = load i64, ptr %15, align 8
  %164 = trunc i64 %163 to i8
  %165 = zext i8 %164 to i32
  %166 = load i8, ptr %14, align 1
  %167 = zext i8 %166 to i32
  %168 = mul i32 %165, %167
  %169 = load i32, ptr %11, align 4
  %170 = add i32 %169, %168
  store i32 %170, ptr %11, align 4
  %171 = load i64, ptr %15, align 8
  %172 = trunc i64 %171 to i8
  %173 = zext i8 %172 to i32
  %174 = load i8, ptr %14, align 1
  %175 = zext i8 %174 to i32
  %176 = mul i32 %173, %175
  %177 = load i16, ptr %18, align 2
  %178 = zext i16 %177 to i32
  %179 = sub i32 %178, %176
  %180 = trunc i32 %179 to i16
  store i16 %180, ptr %18, align 2
  br label %181

181:                                              ; preds = %143, %138
  br label %59, !llvm.loop !19

182:                                              ; preds = %59
  %183 = load i16, ptr %18, align 2
  %184 = zext i16 %183 to i32
  %185 = icmp sgt i32 %184, 0
  br i1 %185, label %186, label %264

186:                                              ; preds = %182
  %187 = load i32, ptr %20, align 4
  switch i32 %187, label %247 [
    i32 1, label %188
  ]

188:                                              ; preds = %186
  call void @llvm.lifetime.start.p0(i64 24, ptr %22) #7
  call void @llvm.lifetime.start.p0(i64 1, ptr %23) #7
  store i8 0, ptr %23, align 1
  call void @llvm.lifetime.start.p0(i64 4, ptr %24) #7
  %189 = load i16, ptr %18, align 2
  %190 = zext i16 %189 to i32
  %191 = icmp sgt i32 %190, 3
  br i1 %191, label %192, label %216

192:                                              ; preds = %188
  %193 = load i32, ptr %19, align 4
  %194 = load i32, ptr %10, align 4
  %195 = add i32 %193, %194
  %196 = sub i32 %195, 2
  %197 = mul i32 %196, 8
  %198 = add i32 %197, 5
  store i32 %198, ptr %24, align 4
  %199 = load i8, ptr %23, align 1
  %200 = zext i8 %199 to i64
  %201 = getelementptr [3 x %struct.crumb_spec_t], ptr %22, i64 0, i64 %200
  %202 = getelementptr inbounds nuw %struct.crumb_spec_t, ptr %201, i32 0, i32 0
  store i32 0, ptr %202, align 8
  %203 = load i16, ptr %18, align 2
  %204 = zext i16 %203 to i32
  %205 = sub i32 %204, 3
  %206 = trunc i32 %205 to i8
  %207 = load i8, ptr %23, align 1
  %208 = add i8 %207, 1
  store i8 %208, ptr %23, align 1
  %209 = zext i8 %207 to i64
  %210 = getelementptr [3 x %struct.crumb_spec_t], ptr %22, i64 0, i64 %209
  %211 = getelementptr inbounds nuw %struct.crumb_spec_t, ptr %210, i32 0, i32 1
  store i8 %206, ptr %211, align 4
  %212 = load i8, ptr %23, align 1
  %213 = zext i8 %212 to i64
  %214 = getelementptr [3 x %struct.crumb_spec_t], ptr %22, i64 0, i64 %213
  %215 = getelementptr inbounds nuw %struct.crumb_spec_t, ptr %214, i32 0, i32 0
  store i32 8, ptr %215, align 8
  br label %227

216:                                              ; preds = %188
  %217 = load i32, ptr %19, align 4
  %218 = load i32, ptr %10, align 4
  %219 = add i32 %217, %218
  %220 = sub i32 %219, 1
  %221 = mul i32 %220, 8
  %222 = add i32 %221, 5
  store i32 %222, ptr %24, align 4
  %223 = load i8, ptr %23, align 1
  %224 = zext i8 %223 to i64
  %225 = getelementptr [3 x %struct.crumb_spec_t], ptr %22, i64 0, i64 %224
  %226 = getelementptr inbounds nuw %struct.crumb_spec_t, ptr %225, i32 0, i32 0
  store i32 0, ptr %226, align 8
  br label %227

227:                                              ; preds = %216, %192
  %228 = load i8, ptr %23, align 1
  %229 = add i8 %228, 1
  store i8 %229, ptr %23, align 1
  %230 = zext i8 %228 to i64
  %231 = getelementptr [3 x %struct.crumb_spec_t], ptr %22, i64 0, i64 %230
  %232 = getelementptr inbounds nuw %struct.crumb_spec_t, ptr %231, i32 0, i32 1
  store i8 3, ptr %232, align 4
  %233 = load i8, ptr %23, align 1
  %234 = zext i8 %233 to i64
  %235 = getelementptr [3 x %struct.crumb_spec_t], ptr %22, i64 0, i64 %234
  %236 = getelementptr inbounds nuw %struct.crumb_spec_t, ptr %235, i32 0, i32 0
  store i32 0, ptr %236, align 8
  %237 = load i8, ptr %23, align 1
  %238 = zext i8 %237 to i64
  %239 = getelementptr [3 x %struct.crumb_spec_t], ptr %22, i64 0, i64 %238
  %240 = getelementptr inbounds nuw %struct.crumb_spec_t, ptr %239, i32 0, i32 1
  store i8 0, ptr %240, align 4
  %241 = load ptr, ptr %9, align 8
  %242 = load i32, ptr @hf_ansi_637_reserved_bits_16_generic, align 4
  %243 = load ptr, ptr %7, align 8
  %244 = load i32, ptr %24, align 4
  %245 = getelementptr inbounds [3 x %struct.crumb_spec_t], ptr %22, i64 0, i64 0
  %246 = call ptr @proto_tree_add_split_bits_item_ret_val(ptr noundef %241, i32 noundef %242, ptr noundef %243, i32 noundef %244, ptr noundef %245, ptr noundef null)
  call void @llvm.lifetime.end.p0(i64 4, ptr %24) #7
  call void @llvm.lifetime.end.p0(i64 1, ptr %23) #7
  call void @llvm.lifetime.end.p0(i64 24, ptr %22) #7
  br label %263

247:                                              ; preds = %186
  %248 = load ptr, ptr %9, align 8
  %249 = load i32, ptr @hf_ansi_637_reserved_bits_8_generic, align 4
  %250 = load ptr, ptr %7, align 8
  %251 = load i32, ptr %19, align 4
  %252 = load i32, ptr %10, align 4
  %253 = add i32 %251, %252
  %254 = sub i32 %253, 1
  %255 = mul i32 %254, 8
  %256 = load i16, ptr %18, align 2
  %257 = zext i16 %256 to i32
  %258 = sub i32 8, %257
  %259 = add i32 %255, %258
  %260 = load i16, ptr %18, align 2
  %261 = zext i16 %260 to i32
  %262 = call ptr @proto_tree_add_bits_item(ptr noundef %248, i32 noundef %249, ptr noundef %250, i32 noundef %259, i32 noundef %261, i32 noundef 0)
  br label %263

263:                                              ; preds = %247, %227
  br label %264

264:                                              ; preds = %263, %182
  store i32 0, ptr %21, align 4
  br label %265

265:                                              ; preds = %264, %27
  call void @llvm.lifetime.end.p0(i64 4, ptr %20) #7
  call void @llvm.lifetime.end.p0(i64 4, ptr %19) #7
  call void @llvm.lifetime.end.p0(i64 2, ptr %18) #7
  call void @llvm.lifetime.end.p0(i64 1, ptr %17) #7
  call void @llvm.lifetime.end.p0(i64 1, ptr %16) #7
  call void @llvm.lifetime.end.p0(i64 8, ptr %15) #7
  call void @llvm.lifetime.end.p0(i64 1, ptr %14) #7
  call void @llvm.lifetime.end.p0(i64 8, ptr %13) #7
  %266 = load i32, ptr %21, align 4
  switch i32 %266, label %268 [
    i32 0, label %267
    i32 1, label %267
  ]

267:                                              ; preds = %265, %265
  ret void

268:                                              ; preds = %265
  unreachable
}