; Function Attrs: null_pointer_is_valid sspstrong uwtable
define internal void @tele_param_srvc_cat_prog_data(ptr noundef %0, ptr noundef %1, ptr noundef %2, i32 noundef %3, i32 noundef %4, ptr readnone captures(none) %5) #0 {
  %7 = alloca i64, align 8
  %8 = alloca i64, align 8
  %9 = alloca [3 x %struct.crumb_spec_t], align 16
  call void @llvm.lifetime.start.p0(i64 8, ptr nonnull %7) #7
  call void @llvm.lifetime.start.p0(i64 8, ptr nonnull %8) #7
  %10 = icmp ult i32 %3, 2
  br i1 %10, label %11, label %13

11:                                               ; preds = %6
  %12 = tail call ptr @proto_tree_add_expert(ptr noundef %2, ptr noundef %1, ptr noundef nonnull @ei_ansi_637_short_data, ptr noundef %0, i32 noundef %4, i32 noundef %3)
  br label %97

13:                                               ; preds = %6
  %14 = shl i32 %4, 3
  %15 = load i32, ptr @hf_ansi_637_tele_srvc_cat_prog_data_encoding, align 4
  %16 = call ptr @proto_tree_add_bits_ret_val(ptr noundef %2, i32 noundef %15, ptr noundef %0, i32 noundef %14, i32 noundef 5, ptr noundef nonnull %7, i32 noundef 0)
  %17 = load i64, ptr %7, align 8
  switch i64 %17, label %18 [
    i64 0, label %21
    i64 5, label %21
    i64 6, label %21
    i64 7, label %21
    i64 8, label %21
    i64 16, label %21
    i64 9, label %20
    i64 4, label %19
  ]

18:                                               ; preds = %13
  br label %21

19:                                               ; preds = %13
  br label %21

20:                                               ; preds = %13
  br label %21

21:                                               ; preds = %13, %13, %13, %13, %13, %13, %20, %19, %18
  %.086 = phi i32 [ 7, %18 ], [ 16, %19 ], [ 7, %20 ], [ 8, %13 ], [ 8, %13 ], [ 8, %13 ], [ 8, %13 ], [ 8, %13 ], [ 8, %13 ]
  %cond = phi i1 [ false, %18 ], [ false, %19 ], [ true, %20 ], [ false, %13 ], [ false, %13 ], [ false, %13 ], [ false, %13 ], [ false, %13 ], [ false, %13 ]
  %22 = shl i32 %3, 3
  %23 = add i32 %22, 65531
  %24 = and i32 %23, 65531
  %25 = icmp samesign ugt i32 %24, 7
  br i1 %25, label %.lr.ph.preheader, label %._crit_edge.thread

.lr.ph.preheader:                                 ; preds = %21
  %26 = or disjoint i32 %14, 5
  br label %.lr.ph

.lr.ph:                                           ; preds = %.lr.ph.preheader, %67
  %.08395 = phi i32 [ %.1, %67 ], [ %26, %.lr.ph.preheader ]
  %.08494 = phi i32 [ %.185, %67 ], [ %23, %.lr.ph.preheader ]
  %27 = load i32, ptr @hf_ansi_637_tele_srvc_cat_prog_data_operation_code, align 4
  %28 = call ptr @proto_tree_add_bits_item(ptr noundef %2, i32 noundef %27, ptr noundef %0, i32 noundef %.08395, i32 noundef 4, i32 noundef 0)
  %29 = add i32 %.08395, 4
  %30 = load i32, ptr @hf_ansi_637_tele_srvc_cat_prog_data_category, align 4
  %31 = call ptr @proto_tree_add_bits_item(ptr noundef %2, i32 noundef %30, ptr noundef %0, i32 noundef %29, i32 noundef 16, i32 noundef 0)
  %32 = add i32 %.08395, 20
  %33 = load i32, ptr @hf_ansi_637_tele_srvc_cat_prog_data_language, align 4
  %34 = call ptr @proto_tree_add_bits_item(ptr noundef %2, i32 noundef %33, ptr noundef %0, i32 noundef %32, i32 noundef 8, i32 noundef 0)
  %35 = add i32 %.08395, 28
  %36 = load i32, ptr @hf_ansi_637_tele_srvc_cat_prog_data_max_messages, align 4
  %37 = call ptr @proto_tree_add_bits_item(ptr noundef %2, i32 noundef %36, ptr noundef %0, i32 noundef %35, i32 noundef 8, i32 noundef 0)
  %38 = add i32 %.08395, 36
  %39 = load i32, ptr @hf_ansi_637_tele_srvc_cat_prog_data_alert_option, align 4
  %40 = call ptr @proto_tree_add_bits_item(ptr noundef %2, i32 noundef %39, ptr noundef %0, i32 noundef %38, i32 noundef 4, i32 noundef 0)
  %41 = add i32 %.08395, 40
  %42 = load i32, ptr @hf_ansi_637_tele_srvc_cat_prog_data_num_fields, align 4
  %43 = call ptr @proto_tree_add_bits_ret_val(ptr noundef %2, i32 noundef %42, ptr noundef %0, i32 noundef %41, i32 noundef 8, ptr noundef nonnull %8, i32 noundef 0)
  %44 = add i32 %.08395, 48
  %45 = add i32 %.08494, 65488
  %46 = load i64, ptr %8, align 8
  %.not93 = icmp eq i64 %46, 0
  br i1 %.not93, label %67, label %47

47:                                               ; preds = %.lr.ph
  %48 = and i32 %.08395, 7
  %.not92 = icmp eq i32 %48, 0
  %49 = trunc nuw nsw i32 %48 to i8
  %50 = sub nuw nsw i8 8, %49
  %51 = select i1 %.not92, i8 0, i8 %50
  %52 = lshr i32 %44, 3
  %53 = load i64, ptr %7, align 8
  %54 = trunc i64 %53 to i8
  %55 = trunc i64 %46 to i8
  %56 = trunc i64 %46 to i32
  %57 = and i32 %56, 255
  %58 = mul nuw nsw i32 %57, %.086
  %59 = trunc nuw nsw i32 %58 to i16
  %60 = load i32, ptr @hf_ansi_637_tele_srvc_cat_prog_data_text, align 4
  call fastcc void @text_decoder(ptr noundef %0, ptr noundef %1, ptr noundef %2, i32 noundef %52, i8 noundef zeroext %54, i8 noundef zeroext %55, i16 noundef zeroext %59, i8 noundef zeroext %51, i8 noundef zeroext 0, i32 noundef %60)
  %61 = load i64, ptr %8, align 8
  %62 = trunc i64 %61 to i32
  %63 = and i32 %62, 255
  %64 = mul nuw nsw i32 %63, %.086
  %65 = add i32 %64, %44
  %66 = sub i32 %45, %64
  br label %67

67:                                               ; preds = %47, %.lr.ph
  %.185 = phi i32 [ %66, %47 ], [ %45, %.lr.ph ]
  %.1 = phi i32 [ %65, %47 ], [ %44, %.lr.ph ]
  %68 = and i32 %.185, 65535
  %69 = icmp samesign ugt i32 %68, 7
  br i1 %69, label %.lr.ph, label %._crit_edge, !llvm.loop !19

._crit_edge:                                      ; preds = %67
  %.not = icmp eq i32 %68, 0
  br i1 %.not, label %97, label %._crit_edge.thread

._crit_edge.thread:                               ; preds = %21, %._crit_edge
  %.lcssa102 = phi i32 [ %68, %._crit_edge ], [ %24, %21 ]
  %.084.lcssa101 = phi i32 [ %.185, %._crit_edge ], [ %23, %21 ]
  br i1 %cond, label %70, label %91

70:                                               ; preds = %._crit_edge.thread
  call void @llvm.lifetime.start.p0(i64 24, ptr nonnull %9) #7
  %71 = icmp samesign ugt i32 %.lcssa102, 3
  %72 = add i32 %4, %3
  %73 = shl i32 %72, 3
  br i1 %71, label %74, label %80

74:                                               ; preds = %70
  %75 = add i32 %73, -11
  %76 = trunc i32 %.084.lcssa101 to i8
  %77 = add i8 %76, -3
  %78 = getelementptr inbounds nuw i8, ptr %9, i64 4
  store i8 %77, ptr %78, align 4
  %79 = getelementptr inbounds nuw i8, ptr %9, i64 8
  store i32 8, ptr %79, align 8
  br label %82

80:                                               ; preds = %70
  %81 = add i32 %73, -3
  br label %82

82:                                               ; preds = %80, %74
  %.081 = phi i8 [ 1, %74 ], [ 0, %80 ]
  %.0 = phi i32 [ %75, %74 ], [ %81, %80 ]
  store i32 0, ptr %9, align 16
  %83 = add nuw nsw i8 %.081, 1
  %84 = zext nneg i8 %.081 to i64
  %85 = getelementptr [3 x %struct.crumb_spec_t], ptr %9, i64 0, i64 %84, i32 1
  store i8 3, ptr %85, align 4
  %86 = zext nneg i8 %83 to i64
  %87 = getelementptr [3 x %struct.crumb_spec_t], ptr %9, i64 0, i64 %86
  store i32 0, ptr %87, align 8
  %88 = getelementptr inbounds nuw i8, ptr %87, i64 4
  store i8 0, ptr %88, align 4
  %89 = load i32, ptr @hf_ansi_637_reserved_bits_16_generic, align 4
  %90 = call ptr @proto_tree_add_split_bits_item_ret_val(ptr noundef %2, i32 noundef %89, ptr noundef %0, i32 noundef %.0, ptr noundef nonnull %9, ptr noundef null)
  call void @llvm.lifetime.end.p0(i64 24, ptr nonnull %9) #7
  br label %97

91:                                               ; preds = %._crit_edge.thread
  %92 = load i32, ptr @hf_ansi_637_reserved_bits_8_generic, align 4
  %93 = add i32 %4, %3
  %94 = shl i32 %93, 3
  %95 = sub i32 %94, %.lcssa102
  %96 = call ptr @proto_tree_add_bits_item(ptr noundef %2, i32 noundef %92, ptr noundef %0, i32 noundef %95, i32 noundef %.lcssa102, i32 noundef 0)
  br label %97

97:                                               ; preds = %._crit_edge, %91, %82, %11
  call void @llvm.lifetime.end.p0(i64 8, ptr nonnull %8) #7
  call void @llvm.lifetime.end.p0(i64 8, ptr nonnull %7) #7
  ret void
}